target datalayout = "e-m:e-p270:32:32-p271:32:32-p272:64:64-i64:64-i128:128-f80:128-n8:16:32:64-S128"
target triple = "x86_64-pc-linux-gnu"

@.str.2 = private unnamed_addr constant [5 x i8] c"1'b0\00", align 1
@.str.3 = private unnamed_addr constant [5 x i8] c"1'bx\00", align 1
@.str.4 = private unnamed_addr constant [5 x i8] c"1'b1\00", align 1

; Function Attrs: nounwind uwtable
define ptr @Ver_ParseFindNet(ptr noundef %0, ptr noundef %1) #0 {
  %3 = alloca ptr, align 8
  %4 = alloca ptr, align 8
  %5 = alloca ptr, align 8
  %6 = alloca ptr, align 8
  %7 = alloca i32, align 4
  store ptr %0, ptr %4, align 8, !tbaa !39
  store ptr %1, ptr %5, align 8, !tbaa !3
  call void @llvm.lifetime.start.p0(i64 8, ptr %6) #10
  %8 = load ptr, ptr %4, align 8, !tbaa !39
  %9 = load ptr, ptr %5, align 8, !tbaa !3
  %10 = call ptr @Abc_NtkFindNet(ptr noundef %8, ptr noundef %9)
  store ptr %10, ptr %6, align 8, !tbaa !58
  %11 = icmp ne ptr %10, null
  br i1 %11, label %12, label %14

12:                                               ; preds = %2
  %13 = load ptr, ptr %6, align 8, !tbaa !58
  store ptr %13, ptr %3, align 8
  store i32 1, ptr %7, align 4
  br label %33

14:                                               ; preds = %2
  %15 = load ptr, ptr %5, align 8, !tbaa !3
  %16 = call i32 @strcmp(ptr noundef %15, ptr noundef @.str.2) #12
  %17 = icmp ne i32 %16, 0
  br i1 %17, label %18, label %22

18:                                               ; preds = %14
  %19 = load ptr, ptr %5, align 8, !tbaa !3
  %20 = call i32 @strcmp(ptr noundef %19, ptr noundef @.str.3) #12
  %21 = icmp ne i32 %20, 0
  br i1 %21, label %25, label %22

22:                                               ; preds = %18, %14
  %23 = load ptr, ptr %4, align 8, !tbaa !39
  %24 = call ptr @Abc_NtkFindOrCreateNet(ptr noundef %23, ptr noundef @.str.2)
  store ptr %24, ptr %3, align 8
  store i32 1, ptr %7, align 4
  br label %33

25:                                               ; preds = %18
  %26 = load ptr, ptr %5, align 8, !tbaa !3
  %27 = call i32 @strcmp(ptr noundef %26, ptr noundef @.str.4) #12
  %28 = icmp ne i32 %27, 0
  br i1 %28, label %32, label %29

29:                                               ; preds = %25
  %30 = load ptr, ptr %4, align 8, !tbaa !39
  %31 = call ptr @Abc_NtkFindOrCreateNet(ptr noundef %30, ptr noundef @.str.4)
  store ptr %31, ptr %3, align 8
  store i32 1, ptr %7, align 4
  br label %33

32:                                               ; preds = %25
  store ptr null, ptr %3, align 8
  store i32 1, ptr %7, align 4
  br label %33

33:                                               ; preds = %32, %29, %22, %12
  call void @llvm.lifetime.end.p0(i64 8, ptr %6) #10
  %34 = load ptr, ptr %3, align 8
  ret ptr %34
}