; Function Attrs: nounwind uwtable
define ptr @Ver_ParseFindNet(ptr noundef %0, ptr noundef %1) local_unnamed_addr #0 {
  %3 = tail call ptr @Abc_NtkFindNet(ptr noundef %0, ptr noundef %1) #20
  %.not = icmp eq ptr %3, null
  br i1 %.not, label %4, label %11

4:                                                ; preds = %2
  %5 = tail call i32 @strcmp(ptr noundef nonnull dereferenceable(1) %1, ptr noundef nonnull dereferenceable(5) @.str.2) #22
  %.not10 = icmp eq i32 %5, 0
  br i1 %.not10, label %.sink.split, label %6

6:                                                ; preds = %4
  %7 = tail call i32 @strcmp(ptr noundef nonnull dereferenceable(1) %1, ptr noundef nonnull dereferenceable(5) @.str.3) #22
  %.not11 = icmp eq i32 %7, 0
  br i1 %.not11, label %.sink.split, label %8

8:                                                ; preds = %6
  %9 = tail call i32 @strcmp(ptr noundef nonnull dereferenceable(1) %1, ptr noundef nonnull dereferenceable(5) @.str.4) #22
  %.not12 = icmp eq i32 %9, 0
  br i1 %.not12, label %.sink.split, label %11

.sink.split:                                      ; preds = %8, %4, %6
  %.str.4.sink = phi ptr [ @.str.2, %6 ], [ @.str.2, %4 ], [ @.str.4, %8 ]
  %10 = tail call ptr @Abc_NtkFindOrCreateNet(ptr noundef %0, ptr noundef nonnull %.str.4.sink) #20
  br label %11

11:                                               ; preds = %.sink.split, %8, %2
  %.0 = phi ptr [ %3, %2 ], [ null, %8 ], [ %10, %.sink.split ]
  ret ptr %.0
}